; ModuleID = '28/1174.c'
source_filename = "28/1174.c"
target datalayout = "e-m:e-p270:32:32-p271:32:32-p272:64:64-i64:64-f80:128-n8:16:32:64-S128"
target triple = "x86_64-pc-linux-gnu"

@.str = private unnamed_addr constant [4 x i8] c"%d,\00", align 1
@.str.1 = private unnamed_addr constant [3 x i8] c"%d\00", align 1

; Function Attrs: noinline nounwind uwtable
define dso_local void @main() #0 {
  %1 = alloca [100000 x i8], align 16
  %2 = alloca i8, align 1
  %3 = alloca i32, align 4
  %4 = alloca i32, align 4
  %5 = alloca i32, align 4
  %6 = alloca i32, align 4
  %7 = getelementptr inbounds [100000 x i8], [100000 x i8]* %1, i64 0, i64 0
  %8 = call i32 (i8*, ...) bitcast (i32 (...)* @gets to i32 (i8*, ...)*)(i8* %7)
  %9 = getelementptr inbounds [100000 x i8], [100000 x i8]* %1, i64 0, i64 0
  %10 = call i64 @strlen(i8* %9) #3
  %11 = trunc i64 %10 to i32
  store i32 %11, i32* %4, align 4
  store i32 1, i32* %5, align 4
  store i32 0, i32* %6, align 4
  store i32 0, i32* %3, align 4
  br label %12

12:                                               ; preds = %38, %0
  %13 = load i32, i32* %3, align 4
  %14 = load i32, i32* %4, align 4
  %15 = icmp sle i32 %13, %14
  br i1 %15, label %16, label %39

16:                                               ; preds = %12
  %17 = load i32, i32* %3, align 4
  %18 = sext i32 %17 to i64
  %19 = getelementptr inbounds [100000 x i8], [100000 x i8]* %1, i64 0, i64 %18
  %20 = load i8, i8* %19, align 1
  store i8 %20, i8* %2, align 1
  %21 = load i8, i8* %2, align 1
  %22 = sext i8 %21 to i32
  %23 = icmp ne i32 %22, 32
  br i1 %23, label %24, label %29

24:                                               ; preds = %16
  %25 = load i32, i32* %6, align 4
  %26 = add nsw i32 %25, 1
  store i32 %26, i32* %6, align 4
  %27 = load i32, i32* %3, align 4
  %28 = add nsw i32 %27, 1
  store i32 %28, i32* %3, align 4
  br label %38

29:                                               ; preds = %16
  %30 = load i32, i32* %6, align 4
  %31 = icmp ne i32 %30, 0
  br i1 %31, label %32, label %35

32:                                               ; preds = %29
  %33 = load i32, i32* %6, align 4
  %34 = call i32 (i8*, ...) @printf(i8* getelementptr inbounds ([4 x i8], [4 x i8]* @.str, i64 0, i64 0), i32 %33)
  br label %35

35:                                               ; preds = %32, %29
  store i32 0, i32* %6, align 4
  %36 = load i32, i32* %3, align 4
  %37 = add nsw i32 %36, 1
  store i32 %37, i32* %3, align 4
  br label %38

38:                                               ; preds = %35, %24
  br label %12

39:                                               ; preds = %12
  %40 = load i32, i32* %6, align 4
  %41 = sub nsw i32 %40, 1
  store i32 %41, i32* %6, align 4
  %42 = load i32, i32* %6, align 4
  %43 = call i32 (i8*, ...) @printf(i8* getelementptr inbounds ([3 x i8], [3 x i8]* @.str.1, i64 0, i64 0), i32 %42)
  ret void
}

declare dso_local i32 @gets(...) #1

; Function Attrs: nounwind readonly
declare dso_local i64 @strlen(i8*) #2

declare dso_local i32 @printf(i8*, ...) #1


!llvm.module.flags = !{!0}
!llvm.ident = !{!1}

!0 = !{i32 1, !"wchar_size", i32 4}
!1 = !{!"clang version 10.0.0-4ubuntu1 "}
